Open Watcom Linker Version 1.9
Portions Copyright (c) 1985-2002 Sybase, Inc. All Rights Reserved.
Created on:       14/05/11 19:26:49
Executable Image: dos86l/cr3.exe
creating a DOS executable


                        +------------+
                        |   Groups   |
                        +------------+

Group                           Address              Size
=====                           =======              ====

DGROUP                          0527:0000            00001100



                        +--------------+
                        |   Segments   |
                        +--------------+

Segment                Class          Group          Address         Size
=======                =====          =====          =======         ====

cr3_TEXT               CODE           AUTO           0000:0000       00000047
dos_TEXT               CODE           AUTO           0000:0050       000013ca
_TEXT                  CODE           AUTO           0000:1420       00002df6
cpu_TEXT               CODE           AUTO           0000:4220       000006b3
text                   CODE           AUTO           0000:48d3       00000778
ntvdmlib_TEXT          CODE           AUTO           0000:5050       00000211
FAR_DATA               FAR_DATA       AUTO           0526:0001       00000000
_NULL                  BEGDATA        DGROUP         0527:0000       00000020
_AFTERNULL             BEGDATA        DGROUP         0529:0000       00000002
CONST                  DATA           DGROUP         0529:0002       0000045a
CONST2                 DATA           DGROUP         056e:000c       00000000
_DATA                  DATA           DGROUP         056f:0000       00000342
XIB                    DATA           DGROUP         05a3:0002       00000000
XI                     DATA           DGROUP         05a3:0002       00000012
XIE                    DATA           DGROUP         05a4:0004       00000000
YIB                    DATA           DGROUP         05a4:0004       00000000
YI                     DATA           DGROUP         05a4:0004       00000006
YIE                    DATA           DGROUP         05a4:000a       00000000
STRINGS                DATA           DGROUP         05a4:000a       00000000
DATA                   DATA           DGROUP         05a4:000a       00000000
_BSS                   BSS            DGROUP         05a4:000a       00000126
STACK                  STACK          DGROUP         05b7:0000       00000800


                        +----------------+
                        |   Memory Map   |
                        +----------------+

* = unreferenced symbol
+ = symbol only referenced locally

Address        Symbol
=======        ======

Module: dos86l/cr3.obj(/usr/src/doslib/hw/dos/cr3.c)
0000:0000      main_
Module: ../../hw/dos/dos86l/dos.lib(/usr/src/doslib/hw/dos/dos.c)
0527:0480*     _megaem_info
0527:0486+     _lib_dos_option
0527:0488+     _dos_LOL
0527:048c+     _dos_flavor
0527:048e+     _dos_version
0527:0490+     _freedos_kernel_version
0527:0494+     _dos_version_method
0527:0498+     _windows_version_method
0527:049c+     _ntvdm_dosntast_tried
0527:049e+     _ntvdm_dosntast_handle
0527:04a0+     _freedos_kernel_version_str
0527:04a4*     _windows_emulation_comment_str
0527:04a8+     _windows_emulation
0527:04aa+     _windows_version
0527:04ac      _windows_mode
0527:04ad+     _windows_init
0527:04ae+     _vcpi_probed
0527:04af+     _vcpi_present
0527:04b0*     _windows_mode_strs
0527:04c8+     _dpmi_flags
0527:04ca+     _dpmi_version
0527:04cc+     _dpmi_init
0527:04d0      _dpmi_entry_point
0527:04d4      _dpmi_present
0527:04d5+     _dpmi_processor_type
0527:04d6+     _dpmi_private_data_length_paragraphs
0527:04d8      _dpmi_private_data_segment
0527:04da      _dpmi_entered
0527:04e0      _dpmi_rm_entry
0527:04e8      _dpmi_pm_entry
0000:0050*     _dos_xread_
0000:0096*     _dos_xwrite_
0000:00dc      probe_dpmi_
0000:0192      probe_dos_
0000:029c      detect_windows_
0000:04ea*     dos_list_of_lists_
0000:0524*     dos_mcb_get_psp_
0000:0542+     mcb_name_is_junk_
0000:056e+     dos_mcb_first_segment_
0000:058c*     mcb_filter_name_
0000:0644+     dos_mcb_next_
0000:06f8*     dos_mcb_first_
0000:0744*     dos_parse_psp_
0000:07b6+     dos_device_next_
0000:0890*     dos_device_first_
0000:0940*     dos_linear_to_phys_vcpi_
0000:099e*     probe_vcpi_
0000:0a24*     dpmi_getexhandler_
0000:0a60*     dpmi_setexhandler_
0000:0a9e+     dpmi_private_alloc_
0000:0afe      dpmi_enter_
0000:0bae*     gravis_mega_em_detect_
0000:0c30*     gravis_sbos_detect_
0000:0c98*     gravis_ultramid_detect_
0000:0d00*     dos_close_awareness_cancel_
0000:0d1a*     dos_close_awareness_ack_
0000:0d34*     dos_close_awareness_enable_
0000:0d76*     dos_close_awareness_query_
0000:0dae*     dos_close_awareness_available_
0000:0dc2*     dos_vm_yield_
0000:0dda*     detect_virtualbox_emu_
0000:0f18*     dpmi_lin2fmemcpy_
0000:0f8e*     dpmi_lin2fmemcpy_init_
0000:0fb4*     windows_emulation_str_
0000:0fce+     ntvdm_dosntast_detect_
0000:1032+     ntvdm_dosntast_load_vdd_
0000:1154*     ntvdm_dosntast_waveOutGetNumDevs_
0000:117e*     ntvdm_dosntast_waveOutGetDevCaps_
0000:11ea*     ntvdm_dosntast_MessageBox_
0000:1240+     ntvdm_dosntast_init_
0000:1304*     ntvdm_dosntast_unload_
0000:1346*     ntvdm_dosntast_GetTickCount_
0000:1394+     ntvdm_dosntast_getversionex_
0000:13f6*     dos_flavor_str_
0527:0505+     _virtualbox_version_str
0527:0546+     _ntvdm_dosntast_io_base
0527:07da      _dpmi_pm_es
0527:07dc      _dpmi_pm_ds
0527:07de      _dpmi_pm_cs
0527:07e0      _dpmi_pm_ss
0527:07e2+     _vcpi_minor_version
0527:07e3+     _vcpi_major_version
Module: /usr/watcom/lib286/dos/clibl.lib(printf.c)
0000:1420      printf_
Module: /usr/watcom/lib286/dos/clibl.lib(cstart)
0527:0000*     __nullarea
0527:0548*     __ovlflag
0527:0549*     __intno
0527:054a*     __ovlvec
0000:1450      _cstart_
0000:1523*     _Not_Enough_Memory_
0000:1657      __exit_
0000:1676      __do_exit_with_msg__
0000:16d4      __GETDS
Module: /usr/watcom/lib286/dos/clibl.lib(cmodel)
0000:16de      _big_code_
0000:16de*     CodeModelMismatch
Module: /usr/watcom/lib286/dos/clibl.lib(intx086.c)
0000:16de+     int86x_
0000:1777      int86_
Module: ../../hw/cpu/dos86l/cpu.lib(/usr/src/doslib/hw/cpu/cpu.c)
0527:0550+     _cpu_sse_usable
0527:0551+     _cpu_sse_usable_probed
0527:0552+     _cpu_sse_usable_can_turn_on
0527:0553+     _cpu_sse_usable_can_turn_off
0527:0554+     _cpu_sse_unusable_reason
0527:0558+     _cpu_sse_usable_detection_method
0527:055c+     _cpu_cpuid_ext_info
0527:0560      _cpu_cpuid_vendor
0527:056d      _cpu_serial
0527:057d      _cpu_cpuid_features
0527:058d      _cpu_basic_level
0527:0590      _cpu_cpuid_max
0527:0594      _cpu_flags
0527:0596      _cpu_tmp1
0527:0598*     _cpu_basic_level_str
0000:4236+     cpu_extended_cpuid_info_free_
0000:4260*     cpu_extended_cpuid_probe_
0000:45f2      cpu_probe_
0000:4608*     cpu_check_sse_is_usable_
0000:47c8*     cpu_sse_disable_
0000:484e*     cpu_sse_enable_
Module: ../../hw/dos/dos86l/dos.lib(dosasm.asm)
0000:48e8      _dpmi_enter_core
0000:4ab9      _dpmi_lin2fmemcpy_32
0000:4bd9      _dpmi_lin2fmemcpy_16
Module: ../../windows/ntvdm/dos86l/ntvdmlib.lib(/usr/src/doslib/windows/ntvdm/ntvdmlib.c)
0000:5050*     i_am_ntvdm_client_
0000:509e*     ntvdm_RM_ERR_str_
0000:50d0      ntvdm_UnregisterModule_
0000:50ee      ntvdm_RegisterModule_
Module: /usr/watcom/lib286/dos/clibl.lib(iob.c)
0527:05c6      ___iob
0527:072e*     __fmode
0527:07e4      ___OpenStreams
0527:07e8      ___ClosedStreams
Module: /usr/watcom/lib286/dos/clibl.lib(fprtf.c)
0000:17be      __fprtf_
Module: /usr/watcom/lib286/dos/clibl.lib(xmsg.c)
0000:1889*     __exit_with_msg_
0000:188e      __fatal_runtime_error_
Module: /usr/watcom/lib286/dos/clibl.lib(cmain086.c)
0000:18ac      __CMain
Module: /usr/watcom/lib286/dos/clibl.lib(initrtns.c)
0000:1912      __InitRtns
0000:1912*     __FInitRtns
0000:196d      __FiniRtns
0000:196d*     __FFiniRtns
Module: /usr/watcom/lib286/dos/clibl.lib(crwdata)
0527:0730      __curbrk
0527:0738      __STACKLOW
0527:073a      __STACKTOP
0527:073c      __cbyte
0527:073e      __child
0527:0740      __no87
0527:074e      ___FPE_handler
0527:0732      __psp
0527:0742      __get_ovl_stack
0527:0746      __restore_ovl_stack
0527:074a      __close_ovl_file
0527:0752      __LpCmdLine
0527:0756      __LpPgmName
0527:0734      __osmajor
0527:0735      __osminor
0527:0736      __osmode
0527:0737      __HShift
Module: /usr/watcom/lib286/dos/clibl.lib(uselfn.c)
0527:075a      ___uselfn
Module: /usr/watcom/lib286/dos/clibl.lib(dosseg)
0000:19d2      __DOSseg__
Module: /usr/watcom/lib286/dos/clibl.lib(intr.c)
0000:19d3      intr_
Module: /usr/watcom/lib286/dos/clibl.lib(segread.c)
0000:19e7      segread_
Module: /usr/watcom/lib286/dos/clibl.lib(ffree.c)
0000:1a07      _ffree_
0000:1a07      free_
Module: /usr/watcom/lib286/dos/clibl.lib(fmalloc.c)
0000:1a4d      _fmalloc_
0000:1a4d      malloc_
0527:075c+     ___fheap
0527:075e      ___fheapRover
0527:0760      ___LargestSizeB4Rover
Module: ../../hw/cpu/dos86l/cpu.lib(cpuasm.asm)
0000:4cff      cpu_basic_probe_
0000:4e0a*     _inpd
0000:4e1b*     _outpd
0000:4e29*     cpu_disable_serial_
0000:4e46*     cpu_ask_serial_
0000:4e82*     reset_8086_entry_
0000:4e88*     bios_reset_cb_e_
0000:4eb6*     cpu_rdtsc_
0000:4ecc*     cpu_rdtsc_write_
0000:4ef6      cpu_cpuid_
0000:4f2e      _cpu_dpmi_win9x_sse_test
Module: /usr/watcom/lib286/dos/clibl.lib(d_getvec.c)
0000:1b5a      _dos_getvect_
Module: /usr/watcom/lib286/dos/clibl.lib(d_setvec.c)
0000:1b65      _dos_setvect_
Module: /usr/watcom/lib286/dos/clibl.lib(initfile.c)
0000:1b72      __InitFiles_
Module: /usr/watcom/lib286/dos/clibl.lib(ioexit.c)
0000:1cc0*     fcloseall_
0000:1cc7      __full_io_exit_
Module: /usr/watcom/lib286/dos/clibl.lib(fputc.c)
0000:1cd1      fputc_
Module: /usr/watcom/lib286/dos/clibl.lib(ioalloc.c)
0000:1da1      __ioalloc_
Module: /usr/watcom/lib286/dos/clibl.lib(prtf.c)
0000:1e3b      __prtf_
Module: /usr/watcom/lib286/dos/clibl.lib(flush.c)
0000:2c09      __flush_
Module: /usr/watcom/lib286/dos/clibl.lib(enterdb.c)
0000:2d3c      __EnterWVIDEO_
0527:0762+     ___WD_Present
Module: /usr/watcom/lib286/dos/clibl.lib(___argc.c)
0527:07ec      ____Argv
0527:07f0      ____Argc
Module: /usr/watcom/lib286/dos/clibl.lib(amblksiz.c)
0527:0764      __amblksiz
Module: /usr/watcom/lib286/dos/clibl.lib(exit.c)
0000:2d60+     __null_int23_exit_
0000:2d61      exit_
0000:2d92*     _exit_
0527:0766+     ___int23_exit
0527:076a+     ___FPE_handler_exit
Module: /usr/watcom/lib286/dos/clibl.lib(sgdef086)
0527:07c2      __Start_XI
0527:07d4      __End_XI
0527:07d4      __Start_YI
0527:07da      __End_YI
Module: /usr/watcom/lib286/dos/clibl.lib(dointr)
0000:2dac      _DoINTR_
Module: /usr/watcom/lib286/dos/clibl.lib(nmalloc.c)
0000:3125      _nmalloc_
0527:076e      ___nheapbeg
0527:0770      ___MiniHeapRover
0527:0772      ___LargestSizeB4MiniHeapRover
Module: /usr/watcom/lib286/dos/clibl.lib(mem.c)
0000:3200      __MemAllocator
0000:32ca      __MemFree
Module: /usr/watcom/lib286/dos/clibl.lib(nfree.c)
0000:3427      _nfree_
0527:07f2+     ___MiniHeapFreeRover
Module: /usr/watcom/lib286/dos/clibl.lib(hpgrw086.c)
0000:3522      __CMain_nheapgrow_
Module: /usr/watcom/lib286/dos/clibl.lib(growseg.c)
0000:3527      __GrowSeg_
Module: /usr/watcom/lib286/dos/clibl.lib(allocseg.c)
0000:3619      __AllocSeg_
Module: /usr/watcom/lib286/dos/clibl.lib(fmemneed.c)
0000:36b0      __fmemneed_
Module: /usr/watcom/lib286/dos/clibl.lib(fclose.c)
0000:36b3+     __doclose_
0000:3764      __shutdown_stream_
0000:377e*     fclose_
0527:07f4+     ___RmTmpFileFn
Module: /usr/watcom/lib286/dos/clibl.lib(freefp.c)
0000:37c9      __freefp_
0000:3844      __purgefp_
Module: /usr/watcom/lib286/dos/clibl.lib(seterrno.c)
0000:3885      __set_errno_
0000:3899*     __set_EDOM_
0000:38ab*     __set_ERANGE_
0000:38bd*     __set_EINVAL_
0000:38d2      __set_doserrno_
Module: /usr/watcom/lib286/dos/clibl.lib(chktty.c)
0000:38de      __chktty_
Module: /usr/watcom/lib286/dos/clibl.lib(wctomb.c)
0000:3909      wctomb_
Module: /usr/watcom/lib286/dos/clibl.lib(itoa.c)
0000:3932+     utoa_
0000:398f      itoa_
Module: /usr/watcom/lib286/dos/clibl.lib(i4m)
0000:39b4*     __I4M
0000:39b4      __U4M
Module: /usr/watcom/lib286/dos/clibl.lib(strupr.c)
0000:39cc      strupr_
Module: /usr/watcom/lib286/dos/clibl.lib(noefgfmt.c)
0527:0774      ___EFG_printf
0527:0778*     ___EFG_scanf
Module: /usr/watcom/lib286/dos/clibl.lib(mbisdbcs.c)
0527:07f8      ___IsDBCS
Module: /usr/watcom/lib286/dos/clibl.lib(mbislead.c)
0000:3a01*     _ismbblead_
0527:07fa      ___MBCSIsTable
Module: /usr/watcom/lib286/dos/clibl.lib(lltoa.c)
0000:3a1d      ulltoa_
0000:3b02*     lltoa_
Module: /usr/watcom/lib286/dos/clibl.lib(ltoa.c)
0000:3b64      ultoa_
0000:3bd3*     ltoa_
Module: /usr/watcom/lib286/dos/clibl.lib(__lseek.c)
0000:3c02      __lseek_
Module: /usr/watcom/lib286/dos/clibl.lib(qwrit.c)
0000:3c3c      __qwrite_
Module: /usr/watcom/lib286/dos/clibl.lib(fsync.c)
0000:3c99      fsync_
Module: /usr/watcom/lib286/dos/clibl.lib(nmemneed.c)
0000:3c9e      __nmemneed_
Module: /usr/watcom/lib286/dos/clibl.lib(grownear.c)
0000:3d26      __LastFree_
0000:3da0      __ExpandDGROUP_
Module: /usr/watcom/lib286/dos/clibl.lib(heapgrow.c)
0000:3eb1*     _heapgrow_
0000:3eb1*     _fheapgrow_
0000:3eb2      _nheapgrow_
Module: /usr/watcom/lib286/dos/clibl.lib(heapen.c)
0000:3f2c*     _heapenable_
0527:077c      ___heap_enabled
Module: /usr/watcom/lib286/dos/clibl.lib(_clse.c)
0000:3f3d      __close_
Module: /usr/watcom/lib286/dos/clibl.lib(errno.c)
0000:3f70      __get_errno_ptr_
0000:3f77      __get_doserrno_ptr_
0527:08fc+     _errno
0527:08fe+     __doserrno
Module: /usr/watcom/lib286/dos/clibl.lib(isatt.c)
0000:3f7e      isatty_
Module: /usr/watcom/lib286/dos/clibl.lib(alphabet.c)
0527:0456      ___Alphabet
Module: /usr/watcom/lib286/dos/clibl.lib(mbinit.c)
0000:3fd8      __mbinit_
0527:077e+     ___MBCodePage
Module: /usr/watcom/lib286/dos/clibl.lib(dosret.c)
0000:40b3*     _dosretax_
0000:40b8*     _dosret0_
0000:40bf      __set_errno_dos_
0000:411d*     __set_errno_dos_reterr_
Module: /usr/watcom/lib286/dos/clibl.lib(iomode.c)
0000:4128      __GetIOMode_
0000:414d      __SetIOMode_nogrow_
0527:0794+     ___NFiles
0527:0796+     ___init_mode
0527:07be+     ___io_mode
Module: /usr/watcom/lib286/dos/clibl.lib(filedos.c)
0000:4170*     _dos_close_
0000:417e      _dos_commit_
Module: /usr/watcom/lib286/dos/clibl.lib(sbrk.c)
0000:418e*     sbrk_
0000:419e      __brk_
Module: /usr/watcom/lib286/dos/clibl.lib(doserror)
0000:4208      __doserror_


                        +--------------------+
                        |   Libraries Used   |
                        +--------------------+

../../hw/dos/dos86l/dos.lib
../../hw/cpu/dos86l/cpu.lib
../../windows/ntvdm/dos86l/ntvdmlib.lib
/usr/watcom/lib286/dos/clibl.lib


                        +-----------------------+
                        |   Linker Statistics   |
                        +-----------------------+

Stack size:  0800 (2048.)
Memory size:  6370 (25456.)
Entry point address: 0000:1450
Link time: 00:00.00
