Open Watcom Linker Version 1.9
Portions Copyright (c) 1985-2002 Sybase, Inc. All Rights Reserved.
Created on:       14/05/11 21:49:24
Executable Image: dos386f/test.exe
creating a DOS/4G executable


                        +------------+
                        |   Groups   |
                        +------------+

Group                           Address              Size
=====                           =======              ====

DGROUP                          0003:00000000        00011200



                        +--------------+
                        |   Segments   |
                        +--------------+

Segment                Class          Group          Address         Size
=======                =====          =====          =======         ====

BEGTEXT                CODE           AUTO           0001:00000000   00000010
_TEXT                  CODE           AUTO           0001:00000010   00007e57
text                   CODE           AUTO           0002:00000000   00000117
_NULL                  BEGDATA        DGROUP         0003:00000000   00000004
_AFTERNULL             BEGDATA        DGROUP         0003:00000004   00000000
CONST                  DATA           DGROUP         0003:00000004   00000bcc
CONST2                 DATA           DGROUP         0003:00000bd0   00000000
_DATA                  DATA           DGROUP         0003:00000bd0   0000049c
XIB                    DATA           DGROUP         0003:0000106c   00000000
XI                     DATA           DGROUP         0003:0000106c   00000018
XIE                    DATA           DGROUP         0003:00001084   00000000
YIB                    DATA           DGROUP         0003:00001084   00000000
YI                     DATA           DGROUP         0003:00001084   0000000c
YIE                    DATA           DGROUP         0003:00001090   00000000
TIB                    DATA           DGROUP         0003:00001090   00000000
TI                     DATA           DGROUP         0003:00001090   00000000
TIE                    DATA           DGROUP         0003:00001090   00000000
DATA                   DATA           DGROUP         0003:00001090   00000000
_BSS                   BSS            DGROUP         0003:00001090   0000016e
STACK                  STACK          DGROUP         0003:00001200   00010000


                        +----------------+
                        |   Memory Map   |
                        +----------------+

* = unreferenced symbol
+ = symbol only referenced locally

Address        Symbol
=======        ======

Module: dos386f/test.obj(/usr/src/doslib/hw/cpu/test.c)
0001:00000010* cpu_cpuid_ext_cache_tbl_to_str_
0001:0000004c+ cpu_cpuid_ext_cache_tbl_l2_to_str_
0001:00000128  main_
Module: /usr/watcom/lib386/dos/clib3r.lib(sprintf.c)
0001:00001550  sprintf_
Module: /usr/watcom/lib386/dos/clib3r.lib(isatt.c)
0001:00001580  isatty_
Module: /usr/watcom/lib386/dos/clib3r.lib(read.c)
0001:000015a0  read_
Module: ../../hw/cpu/dos386f/cpu.lib(/usr/src/doslib/hw/cpu/cpu.c)
0003:00000bd0+ _cpu_sse_usable
0003:00000bd1+ _cpu_sse_usable_probed
0003:00000bd2+ _cpu_sse_usable_can_turn_on
0003:00000bd3+ _cpu_sse_usable_can_turn_off
0003:00000bd4+ _cpu_sse_unusable_reason
0003:00000bd8+ _cpu_sse_usable_detection_method
0003:00000bdc  _cpu_cpuid_ext_info
0003:00000be0  _cpu_cpuid_vendor
0003:00000bed  _cpu_serial
0003:00000bfd  _cpu_cpuid_features
0003:00000c0d  _cpu_basic_level
0003:00000c10  _cpu_cpuid_max
0003:00000c14  _cpu_flags
0003:00000c16  _cpu_tmp1
0003:00000c18  _cpu_basic_level_str
0001:00001710  cpu_extended_cpuid_info_free_
0001:00001728  cpu_extended_cpuid_probe_
0001:00001a50  cpu_probe_
0001:00001a98* cpu_check_sse_is_usable_
0001:00001c34* cpu_sse_disable_
0001:00001cac* cpu_sse_enable_
Module: /usr/watcom/lib386/dos/clib3r.lib(printf.c)
0001:00001d30  printf_
Module: ../../hw/cpu/dos386f/cpu.lib(cpuasm.asm)
0002:00000000  cpu_basic_probe_
0002:000000d5* cpu_disable_serial_
0002:000000ea  cpu_ask_serial_
Module: /usr/watcom/lib386/dos/clib3r.lib(assert99.c)
0001:00001d60  _assert99_
0001:00001f40* __assert99_
Module: /usr/watcom/lib386/dos/clib3r.lib(cstart)
0001:00000003* ___begtext
0003:00000000* __nullarea
0003:00000c38* __D16Infoseg
0003:00000c3a  __x386_zero_base_selector
0001:00001f68  _cstart_
0001:000021b6  __exit_
0001:000021b8  __do_exit_with_msg__
0001:00002200  __GETDS
0001:00002200  ___GETDSStart_
0001:0000220b  ___GETDSEnd_
Module: /usr/watcom/lib386/dos/clib3r.lib(vsprintf.c)
0001:00002230  vsprintf_
Module: /usr/watcom/lib386/dos/clib3r.lib(iomodtty.c)
0001:00002250  __ChkTTYIOMode_
0001:00002290* __IOMode_
Module: /usr/watcom/lib386/dos/clib3r.lib(iomode.c)
0001:000022b0  __GetIOMode_
0001:000022d0  __SetIOMode_nogrow_
0003:00000c3c+ ___NFiles
0003:00000c40+ ___init_mode
0003:00000c90  ___io_mode
Module: /usr/watcom/lib386/dos/clib3r.lib(seterrno.c)
0001:000022ea  __set_errno_
0001:000022f6* __set_EDOM_
0001:00002302* __set_ERANGE_
0001:0000230e* __set_EINVAL_
0001:0000231f  __set_doserrno_
Module: /usr/watcom/lib386/dos/clib3r.lib(dosret.c)
0001:00002330  _dosretax_
0001:00002340* _dosret0_
0001:00002350  __set_errno_dos_
0001:000023d0* __set_errno_dos_reterr_
Module: /usr/watcom/lib386/dos/clib3r.lib(__lseek.c)
0001:000023e0  __lseek_
Module: /usr/watcom/lib386/dos/clib3r.lib(nfree.c)
0001:00002430  _nfree_
0001:00002430  free_
0003:000010b4  ___MiniHeapFreeRover
Module: /usr/watcom/lib386/dos/clib3r.lib(nmalloc.c)
0001:00002530  _nmalloc_
0001:00002530  malloc_
0003:00000ca8  ___nheapbeg
0003:00000cac  ___MiniHeapRover
0003:00000cb0  ___LargestSizeB4MiniHeapRover
Module: /usr/watcom/lib386/dos/clib3r.lib(memset.c)
0001:00002630  memset_
Module: ../../hw/dos/dos386f/dos.lib(/usr/src/doslib/hw/dos/dos.c)
0003:00000cc0* _megaem_info
0003:00000cc6+ _lib_dos_option
0003:00000cc8+ _dos_LOL
0003:00000ccc+ _dos_flavor
0003:00000cce+ _dos_version
0003:00000cd0+ _freedos_kernel_version
0003:00000cd4+ _dos_version_method
0003:00000cd8+ _windows_version_method
0003:00000cdc  _dpmi_no_0301h
0003:00000cdd+ _ntvdm_dosntast_tried
0003:00000cde+ _ntvdm_dosntast_handle
0003:00000ce0+ _freedos_kernel_version_str
0003:00000ce4* _windows_emulation_comment_str
0003:00000ce8+ _windows_emulation
0003:00000cea+ _windows_version
0003:00000cec  _windows_mode
0003:00000ced+ _windows_init
0003:00000cee+ _vcpi_probed
0003:00000cef+ _vcpi_present
0003:00000cf0* _windows_mode_strs
0003:00000d08+ _dpmi_flags
0003:00000d0a+ _dpmi_version
0003:00000d0c+ _dpmi_init
0003:00000d10+ _dpmi_entry_point
0003:00000d14+ _dpmi_present
0003:00000d15+ _dpmi_processor_type
0003:00000d16+ _dpmi_private_data_length_paragraphs
0003:00000d18+ _dpmi_private_data_segment
0003:00000d1a* _dpmi_entered
0003:00000d20* _dpmi_rm_entry
0003:00000d28* _dpmi_pm_entry
0003:00000d48+ _dos_ltp_info_init
0003:00000d49+ _nmi_32_hooked
0003:00000d4c+ _nmi_32_refcount
0003:00000d50+ _nmi_32_old_vec
0001:00002888* dpmi_linear_lock_
0001:000028dc* dpmi_linear_unlock_
0001:00002930+ dpmi_phys_addr_map_
0001:00002988+ dpmi_phys_addr_free_
0001:000029b4  dpmi_alloc_dos_
0001:00002a38+ dpmi_free_dos_
0001:00002a60* _dos_xread_
0001:00002aa8* _dos_xwrite_
0001:00002af0* dpmi_free_descriptor_
0001:00002b30* dpmi_alloc_descriptors_
0001:00002b80* dpmi_set_segment_base_
0001:00002bd4* dpmi_set_segment_limit_
0001:00002c28* dpmi_set_segment_access_
0001:00002cf0  dpmi_alternate_rm_call_
0001:00002dc4* dpmi_alternate_rm_call_stacko_
0001:00002ef4* probe_dpmi_
0001:000030d8  probe_dos_
0001:000031ec  detect_windows_
0001:000034ac* dos_list_of_lists_
0001:00003508* dos_mcb_get_psp_
0001:00003524+ mcb_name_is_junk_
0001:00003554* dos_mcb_first_segment_
0001:00003568* mcb_filter_name_
0001:00003600+ dos_mcb_next_
0001:000036a4* dos_mcb_first_
0001:000036d8* dos_parse_psp_
0001:00003750+ dos_device_next_
0001:00003834* dos_device_first_
0001:000038d4+ dos_linear_to_phys_vcpi_
0001:00003910* dos_ltp_probe_
0001:00003af8* dos_linear_to_phys_
0001:00003dd0* dpmi_linear_alloc_
0001:00003e34* dpmi_linear_free_
0001:00003e88+ probe_vcpi_
0001:00003f40  dpmi_getexhandler_
0001:00003f88  dpmi_setexhandler_
0001:00003fdc* gravis_mega_em_detect_
0001:00004068* gravis_sbos_detect_
0001:000040d0* gravis_ultramid_detect_
0001:00004168* do_nmi_32_unhook_
0001:000041bc* do_nmi_32_hook_
0001:0000420c* dos_close_awareness_cancel_
0001:00004224* dos_close_awareness_ack_
0001:0000423c* dos_close_awareness_enable_
0001:00004280* dos_close_awareness_query_
0001:000042c0* dos_close_awareness_available_
0001:000042d8* dos_vm_yield_
0001:000042ec* detect_virtualbox_emu_
0001:0000445c* windows_emulation_str_
0001:00004478+ ntvdm_dosntast_detect_
0001:000044dc+ ntvdm_dosntast_load_vdd_
0001:000045c0* ntvdm_dosntast_waveOutGetNumDevs_
0001:000045f8* ntvdm_dosntast_waveOutGetDevCaps_
0001:00004668* ntvdm_dosntast_MessageBox_
0001:000046d4+ ntvdm_dosntast_init_
0001:000047a4* ntvdm_dosntast_unload_
0001:00004800* ntvdm_dosntast_GetTickCount_
0001:00004854+ ntvdm_dosntast_getversionex_
0001:000048d0* dos_flavor_str_
0003:00000d91+ _virtualbox_version_str
0003:00000dd2+ _ntvdm_dosntast_io_base
0003:000010b8+ _dos_ltp_info
0003:000010c8* _dpmi_pm_es
0003:000010ca* _dpmi_pm_ds
0003:000010cc* _dpmi_pm_cs
0003:000010ce* _dpmi_pm_ss
0003:000010d0+ _vcpi_minor_version
0003:000010d1+ _vcpi_major_version
Module: /usr/watcom/lib386/dos/clib3r.lib(d_getvec.c)
0001:00004900  _dos_getvect_
Module: /usr/watcom/lib386/dos/clib3r.lib(d_setvec.c)
0001:00004940  _dos_setvect_
Module: /usr/watcom/lib386/dos/clib3r.lib(iob.c)
0003:00000dd4  ___iob
0003:00000fdc* __fmode
0003:000010d4  ___OpenStreams
0003:000010d8  ___ClosedStreams
Module: /usr/watcom/lib386/dos/clib3r.lib(fprtf.c)
0001:00004990  __fprtf_
Module: /usr/watcom/lib386/dos/clib3r.lib(bprintf.c)
0001:00004a60+ _vbprintf_
0001:00004a90* _bprintf_
0001:00004ac0+ _vsnprintf_
0001:00004b20  _snprintf_
Module: /usr/watcom/lib386/dos/clib3r.lib(enterdb.c)
0001:00004b50  __EnterWVIDEO_
0003:00000fe0  ___WD_Present
Module: /usr/watcom/lib386/dos/clib3r.lib(stack386.c)
0001:00004b80  stackavail_
Module: /usr/watcom/lib386/dos/clib3r.lib(stk)
0001:00004ba7* __STK
0001:00004b94* __CHK
0001:00004ba4  __GRO
0001:00004bc5* __STKOVERFLOW_
Module: /usr/watcom/lib386/dos/clib3r.lib(rterrmsg.c)
0001:00004be0  __rterr_msg_
Module: /usr/watcom/lib386/dos/clib3r.lib(abort.c)
0001:00004c0a  abort_
0001:00004c1c+ __terminate_
0003:00000ff8+ ___abort
Module: /usr/watcom/lib386/dos/clib3r.lib(cmain386.c)
0001:00004c30  __CMain
Module: /usr/watcom/lib386/dos/clib3r.lib(initrtns.c)
0001:00004c80  __InitRtns
0001:00004cd0  __FiniRtns
Module: /usr/watcom/lib386/dos/clib3r.lib(dosseg)
0000:00001234  __DOSseg__
Module: /usr/watcom/lib386/dos/clib3r.lib(crwdata)
0003:00001037  __osmajor
0003:00001038  __osminor
0003:0000100c  __psp
0003:0000102e  __Extender
0003:0000102f  __ExtenderSubtype
0003:00001030  __X32VM
0003:00001010* __x386_stacklow
0003:00001004  __LpCmdLine
0003:00001008  __LpPgmName
0003:00000ffc  __dynend
0003:00001000  __curbrk
0003:00001010  __STACKLOW
0003:00001014  __STACKTOP
0003:00001018  __ASTACKSIZ
0003:0000101c  __ASTACKPTR
0003:00001020* __cbyte
0003:00001024* __cbyte2
0003:00001028  __child
0003:00001031  __Envptr
0003:00001035  __Envseg
0003:0000102c  __no87
0003:00001039  ___FPE_handler
Module: /usr/watcom/lib386/dos/clib3r.lib(uselfn.c)
0003:00001040  ___uselfn
Module: /usr/watcom/lib386/dos/clib3r.lib(prtf.c)
0001:00004d30  __prtf_
Module: /usr/watcom/lib386/dos/clib3r.lib(errno.c)
0001:00005ba0  __get_errno_ptr_
0001:00005bb0  __get_doserrno_ptr_
0003:000010dc+ _errno
0003:000010e0+ __doserrno
Module: /usr/watcom/lib386/dos/clib3r.lib(mem.c)
0001:00005bc0  __MemAllocator
0001:00005c70  __MemFree
Module: /usr/watcom/lib386/dos/clib3r.lib(nmemneed.c)
0001:00005db0  __nmemneed_
Module: /usr/watcom/lib386/dos/clib3r.lib(grownear.c)
0001:00005e40+ __FreeDPMIBlocks_
0001:00005eb0* __ReAllocDPMIBlock_
0001:00006040+ __LastFree_
0001:000062b0  __ExpandDGROUP_
Module: /usr/watcom/lib386/dos/clib3r.lib(__stos)
0001:00006400  __STOSB
0001:00006437* __STOSD
Module: /usr/watcom/lib386/dos/clib3r.lib(int386.c)
0001:000064b0  int386_
Module: /usr/watcom/lib386/dos/clib3r.lib(fprintf.c)
0001:000064d0  fprintf_
Module: /usr/watcom/lib386/dos/clib3r.lib(i8s)
0001:000064f4* __U8RS
0001:0000650e* __I8RS
0001:00006529* __I8LS
0001:00006529  __U8LS
Module: ../../windows/ntvdm/dos386f/ntvdmlib.lib(/usr/src/doslib/windows/ntvdm/ntvdmlib.c)
0001:000065b4* i_am_ntvdm_client_
0001:000065dc* ntvdm_RM_ERR_str_
0001:00006624  ntvdm_rm_code_alloc_
0001:000066b0  ntvdm_DispatchCall_dpmi_
0001:000066f4  ntvdm_UnregisterModule_
0001:00006738  ntvdm_RegisterModule_
Module: /usr/watcom/lib386/dos/clib3r.lib(initfile.c)
0001:000068d0  __InitFiles_
Module: /usr/watcom/lib386/dos/clib3r.lib(ioexit.c)
0001:000069d0* fcloseall_
0001:000069e0  __full_io_exit_
Module: /usr/watcom/lib386/dos/clib3r.lib(fputc.c)
0001:000069f0  fputc_
Module: /usr/watcom/lib386/dos/clib3r.lib(ioalloc.c)
0001:00006ab0  __ioalloc_
Module: /usr/watcom/lib386/dos/clib3r.lib(flush.c)
0001:00006b50  __flush_
Module: /usr/watcom/lib386/dos/clib3r.lib(xmsg.c)
0001:00006c40* __exit_with_msg_
0001:00006c50  __fatal_runtime_error_
Module: /usr/watcom/lib386/dos/clib3r.lib(fputs.c)
0001:00006c70  fputs_
Module: /usr/watcom/lib386/dos/clib3r.lib(cinit.c)
0001:00006d00  __CommonInit_
Module: /usr/watcom/lib386/dos/clib3r.lib(___argc.c)
0003:000010e4  ____Argc
0003:000010e8  ____Argv
Module: /usr/watcom/lib386/dos/clib3r.lib(exit.c)
0001:00006d60+ __null_int23_exit_
0001:00006d61  exit_
0001:00006d8d* _exit_
0003:0000104c+ ___int23_exit
0003:00001050+ ___FPE_handler_exit
Module: /usr/watcom/lib386/dos/clib3r.lib(sgdef086)
0003:0000106c  __Start_XI
0003:00001084  __End_XI
0003:00001084  __Start_YI
0003:00001090  __End_YI
Module: /usr/watcom/lib386/dos/clib3r.lib(wctomb.c)
0001:00006db0  wctomb_
Module: /usr/watcom/lib386/dos/clib3r.lib(itoa.c)
0001:00006de0+ utoa_
0001:00006e30  itoa_
Module: /usr/watcom/lib386/dos/clib3r.lib(strupr.c)
0001:00006e60  strupr_
Module: /usr/watcom/lib386/dos/clib3r.lib(noefgfmt.c)
0003:00001054  ___EFG_printf
0003:00001058* ___EFG_scanf
Module: /usr/watcom/lib386/dos/clib3r.lib(lltoa.c)
0001:00006ea0  ulltoa_
0001:00006f10* lltoa_
Module: /usr/watcom/lib386/dos/clib3r.lib(ltoa.c)
0001:00006f40  ultoa_
0001:00006f90* ltoa_
Module: /usr/watcom/lib386/dos/clib3r.lib(mbisdbcs.c)
0003:000010ec  ___IsDBCS
Module: /usr/watcom/lib386/dos/clib3r.lib(mbislead.c)
0001:00006fc0* _ismbblead_
0003:000010f0  ___MBCSIsTable
Module: /usr/watcom/lib386/dos/clib3r.lib(heapen.c)
0001:00006fe0* _heapenable_
0003:0000105c  ___heap_enabled
Module: /usr/watcom/lib386/dos/clib3r.lib(minreal.c)
0003:000011f4  ___minreal
Module: /usr/watcom/lib386/dos/clib3r.lib(amblksiz.c)
0003:00001060  __amblksiz
Module: /usr/watcom/lib386/dos/clib3r.lib(sbrk386.c)
0001:00006ff0* sbrk_
0001:000070d0  __brk_
Module: /usr/watcom/lib386/dos/clib3r.lib(segread.c)
0001:000071f0  segread_
Module: /usr/watcom/lib386/dos/clib3r.lib(intx386.c)
0001:00007220  int386x_
Module: /usr/watcom/lib386/dos/clib3r.lib(fclose.c)
0001:00007240+ __doclose_
0001:000072c0  __shutdown_stream_
0001:000072e0* fclose_
0003:000011f8+ ___RmTmpFileFn
Module: /usr/watcom/lib386/dos/clib3r.lib(freefp.c)
0001:00007310  __freefp_
0001:00007350  __purgefp_
Module: /usr/watcom/lib386/dos/clib3r.lib(chktty.c)
0001:00007380  __chktty_
Module: /usr/watcom/lib386/dos/clib3r.lib(qwrit.c)
0001:000073c0  __qwrite_
Module: /usr/watcom/lib386/dos/clib3r.lib(fsync.c)
0001:00007440  fsync_
Module: /usr/watcom/lib386/dos/clib3r.lib(dpmihost.c)
0001:00007450  __DPMI_hosted_
Module: /usr/watcom/lib386/dos/clib3r.lib(alphabet.c)
0003:00000b58  ___Alphabet
Module: /usr/watcom/lib386/dos/clib3r.lib(mbinit.c)
0001:0000752a  __mbinit_
0001:000075fb+ dos_get_dbcs_lead_table_
0001:000076ef+ dos_get_code_page_
0003:00001068+ ___MBCodePage
Module: /usr/watcom/lib386/dos/clib3r.lib(int386xa)
0001:0000788c  __int386x_
0001:000078e8* _DoINTR_
Module: /usr/watcom/lib386/dos/clib3r.lib(_clse.c)
0001:00007c70  __close_
Module: /usr/watcom/lib386/dos/clib3r.lib(filedos.c)
0001:00007cc0* _dos_close_
0001:00007cd0  _dos_commit_
Module: /usr/watcom/lib386/dos/clib3r.lib(intdx386.c)
0001:00007ce0  intdosx_
Module: /usr/watcom/lib386/dos/clib3r.lib(inirmsel.c)
0003:000011fc  __ExtenderRealModeSelector
Module: /usr/watcom/lib386/dos/clib3r.lib(doserror)
0001:00007e54  __doserror_


                        +----------------------+
                        |   Imported Symbols   |
                        +----------------------+

Symbol                              Module
======                              ======



                        +--------------------+
                        |   Libraries Used   |
                        +--------------------+

../../hw/dos/dos386f/dos.lib
../../hw/cpu/dos386f/cpu.lib
../../windows/ntvdm/dos386f/ntvdmlib.lib
/usr/watcom/lib386/dos/clib3r.lib


                        +-----------------------+
                        |   Linker Statistics   |
                        +-----------------------+

Stack size:  00010000 (65536.)
Memory size:  0001917e (102782.)
Entry point address: 0001:00001f68
Link time: 00:00.00
