Open Watcom Linker Version 1.9
Portions Copyright (c) 1985-2002 Sybase, Inc. All Rights Reserved.
Created on:       14/05/11 21:49:53
Executable Image: dos86s/cr3.exe
creating a DOS executable


                        +------------+
                        |   Groups   |
                        +------------+

Group                           Address              Size
=====                           =======              ====

DGROUP                          043a:0000            00001060



                        +--------------+
                        |   Segments   |
                        +--------------+

Segment                Class          Group          Address         Size
=======                =====          =====          =======         ====

BEGTEXT                CODE           AUTO           0000:0000       00000007
_TEXT                  CODE           AUTO           0000:0010       00003c28
text                   CODE           AUTO           0000:3c38       00000766
FAR_DATA               FAR_DATA       AUTO           0439:000e       00000000
_NULL                  BEGDATA        DGROUP         043a:0000       00000020
_AFTERNULL             BEGDATA        DGROUP         043c:0000       00000002
CONST                  DATA           DGROUP         043c:0002       0000045a
CONST2                 DATA           DGROUP         0481:000c       00000000
_DATA                  DATA           DGROUP         0482:0000       000002ac
XIB                    DATA           DGROUP         04ac:000c       00000000
XI                     DATA           DGROUP         04ac:000c       0000000c
XIE                    DATA           DGROUP         04ad:0008       00000000
YIB                    DATA           DGROUP         04ad:0008       00000000
YI                     DATA           DGROUP         04ad:0008       00000006
YIE                    DATA           DGROUP         04ad:000e       00000000
STRINGS                DATA           DGROUP         04ad:000e       00000000
DATA                   DATA           DGROUP         04ad:000e       00000000
_BSS                   BSS            DGROUP         04ad:000e       0000011e
STACK                  STACK          DGROUP         04c0:0000       00000800


                        +----------------+
                        |   Memory Map   |
                        +----------------+

* = unreferenced symbol
+ = symbol only referenced locally

Address        Symbol
=======        ======

Module: dos86s/cr3.obj(/usr/src/doslib/hw/dos/cr3.c)
0000:0010      main_
Module: ../../hw/dos/dos86s/dos.lib(/usr/src/doslib/hw/dos/dos.c)
043a:0480*     _megaem_info
043a:0486+     _lib_dos_option
043a:0488+     _dos_LOL
043a:048c+     _dos_flavor
043a:048e+     _dos_version
043a:0490+     _freedos_kernel_version
043a:0494+     _dos_version_method
043a:0496+     _windows_version_method
043a:0498+     _ntvdm_dosntast_tried
043a:049a+     _ntvdm_dosntast_handle
043a:049c+     _freedos_kernel_version_str
043a:04a0*     _windows_emulation_comment_str
043a:04a2+     _windows_emulation
043a:04a4+     _windows_version
043a:04a6      _windows_mode
043a:04a7+     _windows_init
043a:04a8+     _vcpi_probed
043a:04a9+     _vcpi_present
043a:04aa*     _windows_mode_strs
043a:04b6+     _dpmi_flags
043a:04b8+     _dpmi_version
043a:04ba+     _dpmi_init
043a:04bc      _dpmi_entry_point
043a:04c0      _dpmi_present
043a:04c1+     _dpmi_processor_type
043a:04c2+     _dpmi_private_data_length_paragraphs
043a:04c4      _dpmi_private_data_segment
043a:04c6      _dpmi_entered
043a:04c8      _dpmi_rm_entry
043a:04d0      _dpmi_pm_entry
0000:0050*     _dos_xread_
0000:0094*     _dos_xwrite_
0000:00d8      probe_dpmi_
0000:017e      probe_dos_
0000:025e      detect_windows_
0000:044a*     dos_list_of_lists_
0000:0480*     dos_mcb_get_psp_
0000:049c+     mcb_name_is_junk_
0000:04c8+     dos_mcb_first_segment_
0000:04e4*     mcb_filter_name_
0000:058a+     dos_mcb_next_
0000:0620*     dos_mcb_first_
0000:0658*     dos_parse_psp_
0000:06cc+     dos_device_next_
0000:079c*     dos_device_first_
0000:083c*     dos_linear_to_phys_vcpi_
0000:089a*     probe_vcpi_
0000:0916*     dpmi_getexhandler_
0000:0950*     dpmi_setexhandler_
0000:098c+     dpmi_private_alloc_
0000:09e6      dpmi_enter_
0000:0a78*     gravis_mega_em_detect_
0000:0af4*     gravis_sbos_detect_
0000:0b58*     gravis_ultramid_detect_
0000:0bbc*     dos_close_awareness_cancel_
0000:0bd0*     dos_close_awareness_ack_
0000:0be4*     dos_close_awareness_enable_
0000:0c24*     dos_close_awareness_query_
0000:0c5a*     dos_close_awareness_available_
0000:0c6c*     dos_vm_yield_
0000:0c7e*     detect_virtualbox_emu_
0000:0d9c*     dpmi_lin2fmemcpy_
0000:0e02*     dpmi_lin2fmemcpy_init_
0000:0e1e*     windows_emulation_str_
0000:0e32+     ntvdm_dosntast_detect_
0000:0e94+     ntvdm_dosntast_load_vdd_
0000:0fae*     ntvdm_dosntast_waveOutGetNumDevs_
0000:0fce*     ntvdm_dosntast_waveOutGetDevCaps_
0000:1038*     ntvdm_dosntast_MessageBox_
0000:1084+     ntvdm_dosntast_init_
0000:1138*     ntvdm_dosntast_unload_
0000:1172*     ntvdm_dosntast_GetTickCount_
0000:11bc+     ntvdm_dosntast_getversionex_
0000:121c*     dos_flavor_str_
043a:04e7+     _virtualbox_version_str
043a:0528+     _ntvdm_dosntast_io_base
043a:073e      _dpmi_pm_es
043a:0740      _dpmi_pm_ds
043a:0742      _dpmi_pm_cs
043a:0744      _dpmi_pm_ss
043a:0746+     _vcpi_minor_version
043a:0747+     _vcpi_major_version
Module: /usr/watcom/lib286/dos/clibs.lib(printf.c)
0000:1238      printf_
Module: /usr/watcom/lib286/dos/clibs.lib(cstart)
0000:0003*     ___begtext
043a:0000*     __nullarea
0000:1258      _cstart_
0000:132d*     _Not_Enough_Memory_
0000:1458      __exit_
0000:1477      __do_exit_with_msg__
0000:14ba      __GETDS
Module: /usr/watcom/lib286/dos/clibs.lib(cmodel)
0000:14c4      _small_code_
0000:14c4*     CodeModelMismatch
Module: /usr/watcom/lib286/dos/clibs.lib(intx086.c)
0000:14c4+     int86x_
0000:1548      int86_
Module: ../../hw/cpu/dos86s/cpu.lib(/usr/src/doslib/hw/cpu/cpu.c)
043a:0530+     _cpu_sse_usable
043a:0531+     _cpu_sse_usable_probed
043a:0532+     _cpu_sse_usable_can_turn_on
043a:0533+     _cpu_sse_usable_can_turn_off
043a:0534+     _cpu_sse_unusable_reason
043a:0536+     _cpu_sse_usable_detection_method
043a:0538+     _cpu_cpuid_ext_info
043a:053a      _cpu_cpuid_vendor
043a:0547      _cpu_serial
043a:0557      _cpu_cpuid_features
043a:0567      _cpu_basic_level
043a:0568      _cpu_cpuid_max
043a:056c      _cpu_flags
043a:056e      _cpu_tmp1
043a:0570*     _cpu_basic_level_str
0000:1586*     cpu_extended_cpuid_info_free_
0000:1596*     cpu_extended_cpuid_probe_
0000:18d4      cpu_probe_
0000:18e0*     cpu_check_sse_is_usable_
0000:1a2c*     cpu_sse_disable_
0000:1aa6*     cpu_sse_enable_
Module: ../../hw/dos/dos86s/dos.lib(dosasm.asm)
0000:3c4d      _dpmi_enter_core
0000:3e1e      _dpmi_lin2fmemcpy_32
0000:3f3e      _dpmi_lin2fmemcpy_16
Module: ../../windows/ntvdm/dos86s/ntvdmlib.lib(/usr/src/doslib/windows/ntvdm/ntvdmlib.c)
0000:1b20*     i_am_ntvdm_client_
0000:1b5e*     ntvdm_RM_ERR_str_
0000:1b8e      ntvdm_UnregisterModule_
0000:1baa      ntvdm_RegisterModule_
Module: /usr/watcom/lib286/dos/clibs.lib(iob.c)
043a:0590      ___iob
043a:06a8*     __fmode
043a:0748      ___OpenStreams
043a:074a      ___ClosedStreams
Module: /usr/watcom/lib286/dos/clibs.lib(fprtf.c)
0000:1c0a      __fprtf_
Module: /usr/watcom/lib286/dos/clibs.lib(xmsg.c)
0000:1ca1*     __exit_with_msg_
0000:1ca4      __fatal_runtime_error_
Module: /usr/watcom/lib286/dos/clibs.lib(cmain086.c)
0000:1cbe      __CMain
Module: /usr/watcom/lib286/dos/clibs.lib(initrtns.c)
0000:1d0f*     __FInitRtns
0000:1d13      __InitRtns
0000:1d6e*     __FFiniRtns
0000:1d72      __FiniRtns
Module: /usr/watcom/lib286/dos/clibs.lib(crwdata)
043a:06aa      __curbrk
043a:06b2      __STACKLOW
043a:06b4      __STACKTOP
043a:06b6      __cbyte
043a:06b8      __child
043a:06ba      __no87
043a:06c8      ___FPE_handler
043a:06ac      __psp
043a:06bc      __get_ovl_stack
043a:06c0      __restore_ovl_stack
043a:06c4      __close_ovl_file
043a:06cc      __LpCmdLine
043a:06d0      __LpPgmName
043a:06ae      __osmajor
043a:06af      __osminor
043a:06b0      __osmode
043a:06b1      __HShift
Module: /usr/watcom/lib286/dos/clibs.lib(uselfn.c)
043a:06d4      ___uselfn
Module: /usr/watcom/lib286/dos/clibs.lib(dosseg)
0000:1dd6      __DOSseg__
Module: /usr/watcom/lib286/dos/clibs.lib(intr.c)
0000:1dd7      intr_
Module: /usr/watcom/lib286/dos/clibs.lib(segread.c)
0000:1de9      segread_
Module: /usr/watcom/lib286/dos/clibs.lib(nfree.c)
0000:1e01      _nfree_
0000:1e01      free_
043a:074c+     ___MiniHeapFreeRover
Module: /usr/watcom/lib286/dos/clibs.lib(nmalloc.c)
0000:1ec2      _nmalloc_
0000:1ec2      malloc_
043a:06d6      ___nheapbeg
043a:06d8      ___MiniHeapRover
043a:06da      ___LargestSizeB4MiniHeapRover
Module: ../../hw/cpu/dos86s/cpu.lib(cpuasm.asm)
0000:4064      cpu_basic_probe_
0000:416e*     _inpd
0000:417f*     _outpd
0000:418d*     cpu_disable_serial_
0000:41aa*     cpu_ask_serial_
0000:41df*     reset_8086_entry_
0000:41e5*     bios_reset_cb_e_
0000:4213*     cpu_rdtsc_
0000:4229*     cpu_rdtsc_write_
0000:4253      cpu_cpuid_
0000:4281      _cpu_dpmi_win9x_sse_test
Module: /usr/watcom/lib286/dos/clibs.lib(d_getvec.c)
0000:1f7b      _dos_getvect_
Module: /usr/watcom/lib286/dos/clibs.lib(d_setvec.c)
0000:1f86      _dos_setvect_
Module: /usr/watcom/lib286/dos/clibs.lib(initfile.c)
0000:1f93      __InitFiles_
Module: /usr/watcom/lib286/dos/clibs.lib(ioexit.c)
0000:2055*     fcloseall_
0000:205a      __full_io_exit_
Module: /usr/watcom/lib286/dos/clibs.lib(fputc.c)
0000:2062      fputc_
Module: /usr/watcom/lib286/dos/clibs.lib(ioalloc.c)
0000:2108      __ioalloc_
Module: /usr/watcom/lib286/dos/clibs.lib(prtf.c)
0000:2174      __prtf_
Module: /usr/watcom/lib286/dos/clibs.lib(flush.c)
0000:2cd3      __flush_
Module: /usr/watcom/lib286/dos/clibs.lib(enterdb.c)
0000:2dbc      __EnterWVIDEO_
043a:06dc+     ___WD_Present
Module: /usr/watcom/lib286/dos/clibs.lib(___argc.c)
043a:074e      ____Argc
043a:0750      ____Argv
Module: /usr/watcom/lib286/dos/clibs.lib(amblksiz.c)
043a:06de      __amblksiz
Module: /usr/watcom/lib286/dos/clibs.lib(exit.c)
0000:2dd8+     __null_int23_exit_
0000:2dd9      exit_
0000:2df7*     _exit_
043a:06e0+     ___int23_exit
043a:06e2+     ___FPE_handler_exit
Module: /usr/watcom/lib286/dos/clibs.lib(sgdef086)
043a:072c      __Start_XI
043a:0738      __End_XI
043a:0738      __Start_YI
043a:073e      __End_YI
Module: /usr/watcom/lib286/dos/clibs.lib(dointr)
0000:2e08      _DoINTR_
Module: /usr/watcom/lib286/dos/clibs.lib(mem.c)
0000:3190      __MemAllocator
0000:325a      __MemFree
Module: /usr/watcom/lib286/dos/clibs.lib(nmemneed.c)
0000:33b7      __nmemneed_
Module: /usr/watcom/lib286/dos/clibs.lib(grownear.c)
0000:3426+     __LastFree_
0000:348d      __ExpandDGROUP_
Module: /usr/watcom/lib286/dos/clibs.lib(fclose.c)
0000:3567+     __doclose_
0000:35e8      __shutdown_stream_
0000:35f9*     fclose_
043a:0752+     ___RmTmpFileFn
Module: /usr/watcom/lib286/dos/clibs.lib(freefp.c)
0000:361b      __freefp_
0000:3648      __purgefp_
Module: /usr/watcom/lib286/dos/clibs.lib(seterrno.c)
0000:366c      __set_errno_
0000:367a*     __set_EDOM_
0000:3686*     __set_ERANGE_
0000:3692*     __set_EINVAL_
0000:36a1      __set_doserrno_
Module: /usr/watcom/lib286/dos/clibs.lib(chktty.c)
0000:36aa      __chktty_
Module: /usr/watcom/lib286/dos/clibs.lib(wctomb.c)
0000:36cf      wctomb_
Module: /usr/watcom/lib286/dos/clibs.lib(itoa.c)
0000:36ec+     utoa_
0000:3731      itoa_
Module: /usr/watcom/lib286/dos/clibs.lib(i4m)
0000:374c*     __I4M
0000:374c      __U4M
Module: /usr/watcom/lib286/dos/clibs.lib(strupr.c)
0000:3764      strupr_
Module: /usr/watcom/lib286/dos/clibs.lib(noefgfmt.c)
043a:06e4      ___EFG_printf
043a:06e6*     ___EFG_scanf
Module: /usr/watcom/lib286/dos/clibs.lib(mbisdbcs.c)
043a:0754      ___IsDBCS
Module: /usr/watcom/lib286/dos/clibs.lib(mbislead.c)
0000:3794*     _ismbblead_
043a:0756      ___MBCSIsTable
Module: /usr/watcom/lib286/dos/clibs.lib(lltoa.c)
0000:37a9      ulltoa_
0000:386e*     lltoa_
Module: /usr/watcom/lib286/dos/clibs.lib(ltoa.c)
0000:38c1      ultoa_
0000:3914*     ltoa_
Module: /usr/watcom/lib286/dos/clibs.lib(__lseek.c)
0000:3934      __lseek_
Module: /usr/watcom/lib286/dos/clibs.lib(qwrit.c)
0000:396c      __qwrite_
Module: /usr/watcom/lib286/dos/clibs.lib(fsync.c)
0000:39c2      fsync_
Module: /usr/watcom/lib286/dos/clibs.lib(heapen.c)
0000:39c5*     _heapenable_
043a:06e8      ___heap_enabled
Module: /usr/watcom/lib286/dos/clibs.lib(sbrk.c)
0000:39d1*     sbrk_
0000:39d5      __brk_
Module: /usr/watcom/lib286/dos/clibs.lib(_clse.c)
0000:3a29      __close_
Module: /usr/watcom/lib286/dos/clibs.lib(errno.c)
0000:3a58      __get_errno_ptr_
0000:3a5c      __get_doserrno_ptr_
043a:0858+     _errno
043a:085a+     __doserrno
Module: /usr/watcom/lib286/dos/clibs.lib(isatt.c)
0000:3a60      isatty_
Module: /usr/watcom/lib286/dos/clibs.lib(alphabet.c)
043a:0456      ___Alphabet
Module: /usr/watcom/lib286/dos/clibs.lib(mbinit.c)
0000:3ab0      __mbinit_
043a:06ea+     ___MBCodePage
Module: /usr/watcom/lib286/dos/clibs.lib(dosret.c)
0000:3b80*     _dosretax_
0000:3b85*     _dosret0_
0000:3b8c      __set_errno_dos_
0000:3bdc*     __set_errno_dos_reterr_
Module: /usr/watcom/lib286/dos/clibs.lib(iomode.c)
0000:3be6      __GetIOMode_
0000:3bfd      __SetIOMode_nogrow_
043a:0700+     ___NFiles
043a:0702+     ___init_mode
043a:072a+     ___io_mode
Module: /usr/watcom/lib286/dos/clibs.lib(filedos.c)
0000:3c12*     _dos_close_
0000:3c1e      _dos_commit_
Module: /usr/watcom/lib286/dos/clibs.lib(doserror)
0000:3c2c      __doserror_


                        +--------------------+
                        |   Libraries Used   |
                        +--------------------+

../../hw/dos/dos86s/dos.lib
../../hw/cpu/dos86s/cpu.lib
../../windows/ntvdm/dos86s/ntvdmlib.lib
/usr/watcom/lib286/dos/clibs.lib


                        +-----------------------+
                        |   Linker Statistics   |
                        +-----------------------+

Stack size:  0800 (2048.)
Memory size:  5400 (21504.)
Entry point address: 0000:1258
Link time: 00:00.01
